; Function Attrs: mustprogress uwtable
define noundef nonnull align 8 dereferenceable(8) ptr @_ZlsRSoRK5Block(ptr noundef nonnull returned align 8 dereferenceable(8) %0, ptr noundef nonnull readonly align 8 captures(none) dereferenceable(112) %1) local_unnamed_addr #3 {
  %3 = tail call noundef nonnull align 8 dereferenceable(8) ptr @_ZSt16__ostream_insertIcSt11char_traitsIcEERSt13basic_ostreamIT_T0_ES6_PKS3_l(ptr noundef nonnull align 8 dereferenceable(8) %0, ptr noundef nonnull @.str, i64 noundef 6)
  %4 = load ptr, ptr %1, align 8, !tbaa !37
  %5 = getelementptr inbounds nuw i8, ptr %1, i64 8
  %6 = load ptr, ptr %5, align 8, !tbaa !37
  %.not12 = icmp eq ptr %4, %6
  br i1 %.not12, label %._crit_edge, label %.lr.ph

._crit_edge:                                      ; preds = %.lr.ph, %2
  %7 = getelementptr inbounds nuw i8, ptr %1, i64 48
  %8 = load i8, ptr %7, align 8, !tbaa !51, !range !58, !noundef !59
  %9 = trunc nuw i8 %8 to i1
  br i1 %9, label %14, label %16

.lr.ph:                                           ; preds = %2, %.lr.ph
  %.sroa.09.013 = phi ptr [ %13, %.lr.ph ], [ %4, %2 ]
  %10 = load ptr, ptr %.sroa.09.013, align 8, !tbaa !21
  %11 = tail call noundef nonnull align 8 dereferenceable(8) ptr @_ZSt16__ostream_insertIcSt11char_traitsIcEERSt13basic_ostreamIT_T0_ES6_PKS3_l(ptr noundef nonnull align 8 dereferenceable(8) %0, ptr noundef nonnull @.str.1, i64 noundef 1)
  %12 = tail call noundef nonnull align 8 dereferenceable(8) ptr @_ZlsRSoRK8Variable(ptr noundef nonnull align 8 dereferenceable(8) %0, ptr noundef nonnull align 8 dereferenceable(96) %10)
  %13 = getelementptr inbounds nuw i8, ptr %.sroa.09.013, i64 8
  %.not = icmp eq ptr %13, %6
  br i1 %.not, label %._crit_edge, label %.lr.ph

14:                                               ; preds = %._crit_edge
  %15 = tail call noundef nonnull align 8 dereferenceable(8) ptr @_ZSt16__ostream_insertIcSt11char_traitsIcEERSt13basic_ostreamIT_T0_ES6_PKS3_l(ptr noundef nonnull align 8 dereferenceable(8) %0, ptr noundef nonnull @.str.2, i64 noundef 9)
  br label %16

16:                                               ; preds = %14, %._crit_edge
  ret ptr %0
}